; Function Attrs: mustprogress uwtable
define hidden void @_ZN11bv_rewriter16get_param_descrsER12param_descrs(ptr noundef nonnull align 8 dereferenceable(8) %0) local_unnamed_addr #3 align 2 {
  tail call void @_ZN12param_descrs6insertEPKc12cmd_arg_kindS1_S1_S1_(ptr noundef nonnull align 8 dereferenceable(8) %0, ptr noundef nonnull @.str.33, i32 noundef 1, ptr noundef nonnull @.str.38, ptr noundef nonnull @.str.16, ptr noundef nonnull @.str.2)
  tail call void @_ZN12param_descrs6insertEPKc12cmd_arg_kindS1_S1_S1_(ptr noundef nonnull align 8 dereferenceable(8) %0, ptr noundef nonnull @.str.36, i32 noundef 0, ptr noundef nonnull @.str.39, ptr noundef nonnull @.str.40, ptr noundef nonnull @.str.2)
  tail call void @_ZN12param_descrs6insertEPKc12cmd_arg_kindS1_S1_S1_(ptr noundef nonnull align 8 dereferenceable(8) %0, ptr noundef nonnull @.str.34, i32 noundef 1, ptr noundef nonnull @.str.41, ptr noundef nonnull @.str.16, ptr noundef nonnull @.str.2)
  tail call void @_ZN12param_descrs6insertEPKc12cmd_arg_kindS1_S1_S1_(ptr noundef nonnull align 8 dereferenceable(8) %0, ptr noundef nonnull @.str.35, i32 noundef 1, ptr noundef nonnull @.str.42, ptr noundef nonnull @.str.16, ptr noundef nonnull @.str.2)
  tail call void @_ZN12param_descrs6insertEPKc12cmd_arg_kindS1_S1_S1_(ptr noundef nonnull align 8 dereferenceable(8) %0, ptr noundef nonnull @.str.32, i32 noundef 1, ptr noundef nonnull @.str.43, ptr noundef nonnull @.str.18, ptr noundef nonnull @.str.2)
  tail call void @_ZN18bv_rewriter_params20collect_param_descrsER12param_descrs(ptr noundef nonnull align 8 dereferenceable(8) %0)
  ret void
}